; Function Attrs: mustprogress nounwind uwtable
define internal void @_ZN4node10contextifyL19StartSigintWatchdogERKN2v820FunctionCallbackInfoINS1_5ValueEEE(ptr nocapture noundef nonnull readonly align 8 dereferenceable(20) %args) #3 {
entry:
  %call1 = tail call noundef i32 @_ZN4node20SigintWatchdogHelper5StartEv(ptr noundef nonnull align 8 dereferenceable(162) @_ZN4node20SigintWatchdogHelper8instanceE) #21
  %0 = load ptr, ptr %args, align 8
  %cmp = icmp eq i32 %call1, 0
  %arrayidx.i = getelementptr inbounds i8, ptr %0, i64 24
  %arrayidx.i7 = getelementptr inbounds i8, ptr %0, i64 8
  %1 = load ptr, ptr %arrayidx.i7, align 8
  %2 = ptrtoint ptr %1 to i64
  %add.i.i = select i1 %cmp, i64 632, i64 640
  %add1.i.i = add i64 %add.i.i, %2
  %3 = inttoptr i64 %add1.i.i to ptr
  %4 = load i64, ptr %3, align 8
  store i64 %4, ptr %arrayidx.i, align 8
  ret void
}